; Function Attrs: mustprogress uwtable
define void @_ZN8MdiChild23userFriendlyCurrentFileEv(ptr dead_on_unwind noalias writable sret(%class.QString) align 8 %0, ptr noundef nonnull align 8 dereferenceable(153) %1) local_unnamed_addr #0 align 2 personality ptr @__gxx_personality_v0 {
  %3 = alloca %class.QFileInfo, align 8
  %4 = getelementptr inbounds i8, ptr %1, i64 128
  call void @llvm.lifetime.start.p0(i64 8, ptr nonnull %3)
  call void @_ZN9QFileInfoC1ERK7QString(ptr noundef nonnull align 8 dereferenceable(8) %3, ptr noundef nonnull align 8 dereferenceable(24) %4), !noalias !10
  invoke void @_ZNK9QFileInfo8fileNameEv(ptr dead_on_unwind writable sret(%class.QString) align 8 %0, ptr noundef nonnull align 8 dereferenceable(8) %3)
          to label %_ZN8MdiChild12strippedNameERK7QString.exit unwind label %5

5:                                                ; preds = %2
  %6 = landingpad { ptr, i32 }
          cleanup
  call void @_ZN9QFileInfoD1Ev(ptr noundef nonnull align 8 dereferenceable(8) %3) #10
  resume { ptr, i32 } %6

_ZN8MdiChild12strippedNameERK7QString.exit:       ; preds = %2
  call void @_ZN9QFileInfoD1Ev(ptr noundef nonnull align 8 dereferenceable(8) %3) #10
  call void @llvm.lifetime.end.p0(i64 8, ptr nonnull %3)
  ret void
}